target datalayout = "e-m:e-p270:32:32-p271:32:32-p272:64:64-i64:64-i128:128-f80:128-n8:16:32:64-S128"
target triple = "x86_64-pc-linux-gnu"

; Function Attrs: nounwind uwtable
define i32 @PKCS1_MGF1(ptr noundef %0, i64 noundef %1, ptr noundef %2, i64 noundef %3, ptr noundef %4) #0 {
  %6 = alloca ptr, align 8
  %7 = alloca i64, align 8
  %8 = alloca ptr, align 8
  %9 = alloca i64, align 8
  %10 = alloca ptr, align 8
  %11 = alloca i64, align 8
  %12 = alloca i64, align 8
  %13 = alloca [4 x i8], align 1
  %14 = alloca ptr, align 8
  %15 = alloca [64 x i8], align 16
  %16 = alloca i32, align 4
  %17 = alloca i32, align 4
  store ptr %0, ptr %6, align 8, !tbaa !3
  store i64 %1, ptr %7, align 8, !tbaa !18
  store ptr %2, ptr %8, align 8, !tbaa !3
  store i64 %3, ptr %9, align 8, !tbaa !18
  store ptr %4, ptr %10, align 8, !tbaa !12
  call void @llvm.lifetime.start.p0(i64 8, ptr %11) #6
  call void @llvm.lifetime.start.p0(i64 8, ptr %12) #6
  store i64 0, ptr %12, align 8, !tbaa !18
  call void @llvm.lifetime.start.p0(i64 4, ptr %13) #6
  call void @llvm.lifetime.start.p0(i64 8, ptr %14) #6
  %18 = call ptr @EVP_MD_CTX_new()
  store ptr %18, ptr %14, align 8, !tbaa !20
  call void @llvm.lifetime.start.p0(i64 64, ptr %15) #6
  call void @llvm.lifetime.start.p0(i64 4, ptr %16) #6
  call void @llvm.lifetime.start.p0(i64 4, ptr %17) #6
  store i32 -1, ptr %17, align 4, !tbaa !8
  %19 = load ptr, ptr %14, align 8, !tbaa !20
  %20 = icmp eq ptr %19, null
  br i1 %20, label %21, label %22

21:                                               ; preds = %5
  br label %111

22:                                               ; preds = %5
  %23 = load ptr, ptr %10, align 8, !tbaa !12
  %24 = call i32 @EVP_MD_get_size(ptr noundef %23)
  store i32 %24, ptr %16, align 4, !tbaa !8
  %25 = load i32, ptr %16, align 4, !tbaa !8
  %26 = icmp sle i32 %25, 0
  br i1 %26, label %27, label %28

27:                                               ; preds = %22
  br label %111

28:                                               ; preds = %22
  store i64 0, ptr %11, align 8, !tbaa !18
  br label %29

29:                                               ; preds = %107, %28
  %30 = load i64, ptr %12, align 8, !tbaa !18
  %31 = load i64, ptr %7, align 8, !tbaa !18
  %32 = icmp slt i64 %30, %31
  br i1 %32, label %33, label %110

33:                                               ; preds = %29
  %34 = load i64, ptr %11, align 8, !tbaa !18
  %35 = ashr i64 %34, 24
  %36 = and i64 %35, 255
  %37 = trunc i64 %36 to i8
  %38 = getelementptr inbounds [4 x i8], ptr %13, i64 0, i64 0
  store i8 %37, ptr %38, align 1, !tbaa !14
  %39 = load i64, ptr %11, align 8, !tbaa !18
  %40 = ashr i64 %39, 16
  %41 = and i64 %40, 255
  %42 = trunc i64 %41 to i8
  %43 = getelementptr inbounds [4 x i8], ptr %13, i64 0, i64 1
  store i8 %42, ptr %43, align 1, !tbaa !14
  %44 = load i64, ptr %11, align 8, !tbaa !18
  %45 = ashr i64 %44, 8
  %46 = trunc i64 %45 to i8
  %47 = zext i8 %46 to i32
  %48 = and i32 %47, 255
  %49 = trunc i32 %48 to i8
  %50 = getelementptr inbounds [4 x i8], ptr %13, i64 0, i64 2
  store i8 %49, ptr %50, align 1, !tbaa !14
  %51 = load i64, ptr %11, align 8, !tbaa !18
  %52 = and i64 %51, 255
  %53 = trunc i64 %52 to i8
  %54 = getelementptr inbounds [4 x i8], ptr %13, i64 0, i64 3
  store i8 %53, ptr %54, align 1, !tbaa !14
  %55 = load ptr, ptr %14, align 8, !tbaa !20
  %56 = load ptr, ptr %10, align 8, !tbaa !12
  %57 = call i32 @EVP_DigestInit_ex(ptr noundef %55, ptr noundef %56, ptr noundef null)
  %58 = icmp ne i32 %57, 0
  br i1 %58, label %59, label %70

59:                                               ; preds = %33
  %60 = load ptr, ptr %14, align 8, !tbaa !20
  %61 = load ptr, ptr %8, align 8, !tbaa !3
  %62 = load i64, ptr %9, align 8, !tbaa !18
  %63 = call i32 @EVP_DigestUpdate(ptr noundef %60, ptr noundef %61, i64 noundef %62)
  %64 = icmp ne i32 %63, 0
  br i1 %64, label %65, label %70

65:                                               ; preds = %59
  %66 = load ptr, ptr %14, align 8, !tbaa !20
  %67 = getelementptr inbounds [4 x i8], ptr %13, i64 0, i64 0
  %68 = call i32 @EVP_DigestUpdate(ptr noundef %66, ptr noundef %67, i64 noundef 4)
  %69 = icmp ne i32 %68, 0
  br i1 %69, label %71, label %70

70:                                               ; preds = %65, %59, %33
  br label %111

71:                                               ; preds = %65
  %72 = load i64, ptr %12, align 8, !tbaa !18
  %73 = load i32, ptr %16, align 4, !tbaa !8
  %74 = sext i32 %73 to i64
  %75 = add nsw i64 %72, %74
  %76 = load i64, ptr %7, align 8, !tbaa !18
  %77 = icmp sle i64 %75, %76
  br i1 %77, label %78, label %91

78:                                               ; preds = %71
  %79 = load ptr, ptr %14, align 8, !tbaa !20
  %80 = load ptr, ptr %6, align 8, !tbaa !3
  %81 = load i64, ptr %12, align 8, !tbaa !18
  %82 = getelementptr inbounds i8, ptr %80, i64 %81
  %83 = call i32 @EVP_DigestFinal_ex(ptr noundef %79, ptr noundef %82, ptr noundef null)
  %84 = icmp ne i32 %83, 0
  br i1 %84, label %86, label %85

85:                                               ; preds = %78
  br label %111

86:                                               ; preds = %78
  %87 = load i32, ptr %16, align 4, !tbaa !8
  %88 = sext i32 %87 to i64
  %89 = load i64, ptr %12, align 8, !tbaa !18
  %90 = add nsw i64 %89, %88
  store i64 %90, ptr %12, align 8, !tbaa !18
  br label %106

91:                                               ; preds = %71
  %92 = load ptr, ptr %14, align 8, !tbaa !20
  %93 = getelementptr inbounds [64 x i8], ptr %15, i64 0, i64 0
  %94 = call i32 @EVP_DigestFinal_ex(ptr noundef %92, ptr noundef %93, ptr noundef null)
  %95 = icmp ne i32 %94, 0
  br i1 %95, label %97, label %96

96:                                               ; preds = %91
  br label %111

97:                                               ; preds = %91
  %98 = load ptr, ptr %6, align 8, !tbaa !3
  %99 = load i64, ptr %12, align 8, !tbaa !18
  %100 = getelementptr inbounds i8, ptr %98, i64 %99
  %101 = getelementptr inbounds [64 x i8], ptr %15, i64 0, i64 0
  %102 = load i64, ptr %7, align 8, !tbaa !18
  %103 = load i64, ptr %12, align 8, !tbaa !18
  %104 = sub nsw i64 %102, %103
  call void @llvm.memcpy.p0.p0.i64(ptr align 1 %100, ptr align 16 %101, i64 %104, i1 false)
  %105 = load i64, ptr %7, align 8, !tbaa !18
  store i64 %105, ptr %12, align 8, !tbaa !18
  br label %106

106:                                              ; preds = %97, %86
  br label %107

107:                                              ; preds = %106
  %108 = load i64, ptr %11, align 8, !tbaa !18
  %109 = add nsw i64 %108, 1
  store i64 %109, ptr %11, align 8, !tbaa !18
  br label %29, !llvm.loop !22

110:                                              ; preds = %29
  store i32 0, ptr %17, align 4, !tbaa !8
  br label %111

111:                                              ; preds = %110, %96, %85, %70, %27, %21
  %112 = getelementptr inbounds [64 x i8], ptr %15, i64 0, i64 0
  call void @OPENSSL_cleanse(ptr noundef %112, i64 noundef 64)
  %113 = load ptr, ptr %14, align 8, !tbaa !20
  call void @EVP_MD_CTX_free(ptr noundef %113)
  %114 = load i32, ptr %17, align 4, !tbaa !8
  call void @llvm.lifetime.end.p0(i64 4, ptr %17) #6
  call void @llvm.lifetime.end.p0(i64 4, ptr %16) #6
  call void @llvm.lifetime.end.p0(i64 64, ptr %15) #6
  call void @llvm.lifetime.end.p0(i64 8, ptr %14) #6
  call void @llvm.lifetime.end.p0(i64 4, ptr %13) #6
  call void @llvm.lifetime.end.p0(i64 8, ptr %12) #6
  call void @llvm.lifetime.end.p0(i64 8, ptr %11) #6
  ret i32 %114
}