; Function Attrs: nounwind uwtable
define range(i32 -1, 1) i32 @PKCS1_MGF1(ptr noundef %0, i64 noundef %1, ptr noundef %2, i64 noundef %3, ptr noundef %4) local_unnamed_addr #0 {
  %6 = alloca [4 x i8], align 1
  %7 = alloca [64 x i8], align 16
  call void @llvm.lifetime.start.p0(i64 4, ptr nonnull %6) #6
  %8 = tail call ptr @EVP_MD_CTX_new() #6
  call void @llvm.lifetime.start.p0(i64 64, ptr nonnull %7) #6
  %9 = icmp eq ptr %8, null
  br i1 %9, label %.loopexit, label %10

10:                                               ; preds = %5
  %11 = tail call i32 @EVP_MD_get_size(ptr noundef %4) #6
  %12 = icmp slt i32 %11, 1
  br i1 %12, label %.loopexit, label %.preheader

.preheader:                                       ; preds = %10
  %13 = icmp sgt i64 %1, 0
  br i1 %13, label %.lr.ph, label %.loopexit

.lr.ph:                                           ; preds = %.preheader
  %14 = getelementptr inbounds nuw i8, ptr %6, i64 1
  %15 = getelementptr inbounds nuw i8, ptr %6, i64 2
  %16 = getelementptr inbounds nuw i8, ptr %6, i64 3
  %17 = zext nneg i32 %11 to i64
  br label %18

18:                                               ; preds = %.lr.ph, %40
  %.03143 = phi i64 [ 0, %.lr.ph ], [ %41, %40 ]
  %.03242 = phi i64 [ 0, %.lr.ph ], [ %32, %40 ]
  %19 = lshr i64 %.03143, 24
  %20 = trunc i64 %19 to i8
  store i8 %20, ptr %6, align 1, !tbaa !3
  %21 = lshr i64 %.03143, 16
  %22 = trunc i64 %21 to i8
  store i8 %22, ptr %14, align 1, !tbaa !3
  %23 = lshr i64 %.03143, 8
  %24 = trunc i64 %23 to i8
  store i8 %24, ptr %15, align 1, !tbaa !3
  %25 = trunc i64 %.03143 to i8
  store i8 %25, ptr %16, align 1, !tbaa !3
  %26 = call i32 @EVP_DigestInit_ex(ptr noundef nonnull %8, ptr noundef %4, ptr noundef null) #6
  %.not = icmp eq i32 %26, 0
  br i1 %.not, label %.loopexit, label %27

27:                                               ; preds = %18
  %28 = call i32 @EVP_DigestUpdate(ptr noundef nonnull %8, ptr noundef %2, i64 noundef %3) #6
  %.not37 = icmp eq i32 %28, 0
  br i1 %.not37, label %.loopexit, label %29

29:                                               ; preds = %27
  %30 = call i32 @EVP_DigestUpdate(ptr noundef nonnull %8, ptr noundef nonnull %6, i64 noundef 4) #6
  %.not38 = icmp eq i32 %30, 0
  br i1 %.not38, label %.loopexit, label %31

31:                                               ; preds = %29
  %32 = add nuw nsw i64 %.03242, %17
  %.not39 = icmp sgt i64 %32, %1
  br i1 %.not39, label %36, label %33

33:                                               ; preds = %31
  %34 = getelementptr inbounds nuw i8, ptr %0, i64 %.03242
  %35 = call i32 @EVP_DigestFinal_ex(ptr noundef nonnull %8, ptr noundef %34, ptr noundef null) #6
  %.not41 = icmp eq i32 %35, 0
  br i1 %.not41, label %.loopexit, label %40

36:                                               ; preds = %31
  %37 = call i32 @EVP_DigestFinal_ex(ptr noundef nonnull %8, ptr noundef nonnull %7, ptr noundef null) #6
  %.not40 = icmp eq i32 %37, 0
  br i1 %.not40, label %.loopexit, label %.thread

.thread:                                          ; preds = %36
  %38 = getelementptr inbounds nuw i8, ptr %0, i64 %.03242
  %39 = sub nsw i64 %1, %.03242
  call void @llvm.memcpy.p0.p0.i64(ptr align 1 %38, ptr nonnull align 16 %7, i64 %39, i1 false)
  br label %.loopexit

40:                                               ; preds = %33
  %41 = add nuw nsw i64 %.03143, 1
  %42 = icmp slt i64 %32, %1
  br i1 %42, label %18, label %.loopexit, !llvm.loop !9

.loopexit:                                        ; preds = %29, %27, %18, %33, %40, %36, %.thread, %.preheader, %10, %5
  %.0 = phi i32 [ -1, %5 ], [ -1, %10 ], [ 0, %.preheader ], [ -1, %36 ], [ 0, %.thread ], [ -1, %29 ], [ -1, %27 ], [ -1, %18 ], [ -1, %33 ], [ 0, %40 ]
  call void @OPENSSL_cleanse(ptr noundef nonnull %7, i64 noundef 64) #6
  call void @EVP_MD_CTX_free(ptr noundef %8) #6
  call void @llvm.lifetime.end.p0(i64 64, ptr nonnull %7) #6
  call void @llvm.lifetime.end.p0(i64 4, ptr nonnull %6) #6
  ret i32 %.0
}